target datalayout = "e-m:e-p270:32:32-p271:32:32-p272:64:64-i64:64-i128:128-f80:128-n8:16:32:64-S128"
target triple = "x86_64-pc-linux-gnu"

%class.QFlags = type { i32 }
%class.FilterScriptDialog = type { %class.QDialog, ptr, ptr }
%class.QDialog = type { %class.QWidget }
%class.QWidget = type { %class.QObject, %class.QPaintDevice, ptr }
%class.QObject = type { ptr, %class.QScopedPointer }
%class.QScopedPointer = type { ptr }
%class.QPaintDevice = type { ptr, i16, ptr }

@_ZTV18FilterScriptDialog = external unnamed_addr constant { [59 x ptr], [10 x ptr] }, align 8

; Function Attrs: mustprogress nounwind uwtable
define linkonce_odr void @_ZN6QFlagsIN2Qt10WindowTypeEEC2Ev(ptr noundef nonnull align 4 dereferenceable(4) %0) unnamed_addr #4 comdat align 2 {
  %2 = alloca ptr, align 8
  store ptr %0, ptr %2, align 8
  %3 = load ptr, ptr %2, align 8
  %4 = getelementptr inbounds %class.QFlags, ptr %3, i32 0, i32 0
  store i32 0, ptr %4, align 4
  ret void
}

; Function Attrs: mustprogress uwtable
define void @_ZN18FilterScriptDialogC2ER12FilterScriptP7QWidget(ptr noundef nonnull align 8 dereferenceable(64) %0, ptr noundef nonnull align 8 dereferenceable(24) %1, ptr noundef %2) unnamed_addr #5 align 2 personality ptr @__gxx_personality_v0 {
  %4 = alloca ptr, align 8
  %5 = alloca ptr, align 8
  %6 = alloca ptr, align 8
  %7 = alloca %class.QFlags, align 4
  %8 = alloca ptr, align 8
  %9 = alloca i32, align 4
  store ptr %0, ptr %4, align 8
  store ptr %1, ptr %5, align 8
  store ptr %2, ptr %6, align 8
  %10 = load ptr, ptr %4, align 8
  %11 = load ptr, ptr %6, align 8
  call void @_ZN6QFlagsIN2Qt10WindowTypeEEC2Ev(ptr noundef nonnull align 4 dereferenceable(4) %7) #3
  %12 = getelementptr inbounds %class.QFlags, ptr %7, i32 0, i32 0
  %13 = load i32, ptr %12, align 4
  call void @_ZN7QDialogC2EP7QWidget6QFlagsIN2Qt10WindowTypeEE(ptr noundef nonnull align 8 dereferenceable(48) %10, ptr noundef %11, i32 %13)
  store ptr getelementptr inbounds ({ [59 x ptr], [10 x ptr] }, ptr @_ZTV18FilterScriptDialog, i32 0, i32 0, i32 2), ptr %10, align 8
  %14 = getelementptr inbounds i8, ptr %10, i64 16
  store ptr getelementptr inbounds ({ [59 x ptr], [10 x ptr] }, ptr @_ZTV18FilterScriptDialog, i32 0, i32 1, i32 2), ptr %14, align 8
  %15 = getelementptr inbounds %class.FilterScriptDialog, ptr %10, i32 0, i32 1
  %16 = invoke noalias noundef nonnull ptr @_Znwm(i64 noundef 120) #17
          to label %17 unwind label %24

17:                                               ; preds = %3
  store ptr %16, ptr %15, align 8
  %18 = getelementptr inbounds %class.FilterScriptDialog, ptr %10, i32 0, i32 2
  %19 = load ptr, ptr %5, align 8
  store ptr %19, ptr %18, align 8
  %20 = getelementptr inbounds %class.FilterScriptDialog, ptr %10, i32 0, i32 1
  %21 = load ptr, ptr %20, align 8
  invoke void @_ZN21Ui_FilterScriptDialog7setupUiEP7QDialog(ptr noundef nonnull align 8 dereferenceable(120) %21, ptr noundef %10)
          to label %22 unwind label %24

22:                                               ; preds = %17
  invoke void @_ZN18FilterScriptDialog9updateGuiEv(ptr noundef nonnull align 8 dereferenceable(64) %10)
          to label %23 unwind label %24

23:                                               ; preds = %22
  ret void

24:                                               ; preds = %22, %17, %3
  %25 = landingpad { ptr, i32 }
          cleanup
  %26 = extractvalue { ptr, i32 } %25, 0
  store ptr %26, ptr %8, align 8
  %27 = extractvalue { ptr, i32 } %25, 1
  store i32 %27, ptr %9, align 4
  call void @_ZN7QDialogD2Ev(ptr noundef nonnull align 8 dereferenceable(48) %10) #3
  br label %28

28:                                               ; preds = %24
  %29 = load ptr, ptr %8, align 8
  %30 = load i32, ptr %9, align 4
  %31 = insertvalue { ptr, i32 } poison, ptr %29, 0
  %32 = insertvalue { ptr, i32 } %31, i32 %30, 1
  resume { ptr, i32 } %32
}