; Function Attrs: mustprogress uwtable
define void @_ZN18FilterScriptDialogC2ER12FilterScriptP7QWidget(ptr noundef nonnull align 8 dereferenceable(64) %0, ptr noundef nonnull align 8 dereferenceable(24) %1, ptr noundef %2) unnamed_addr #9 align 2 personality ptr @__gxx_personality_v0 {
  tail call void @_ZN7QDialogC2EP7QWidget6QFlagsIN2Qt10WindowTypeEE(ptr noundef nonnull align 8 dereferenceable(48) %0, ptr noundef %2, i32 0)
  store ptr getelementptr inbounds ({ [59 x ptr], [10 x ptr] }, ptr @_ZTV18FilterScriptDialog, i64 0, i32 0, i64 2), ptr %0, align 8
  %4 = getelementptr inbounds i8, ptr %0, i64 16
  store ptr getelementptr inbounds ({ [59 x ptr], [10 x ptr] }, ptr @_ZTV18FilterScriptDialog, i64 0, i32 1, i64 2), ptr %4, align 8
  %5 = invoke noalias noundef nonnull dereferenceable(120) ptr @_Znwm(i64 noundef 120) #21
          to label %6 unwind label %11

6:                                                ; preds = %3
  %7 = getelementptr inbounds i8, ptr %0, i64 48
  store ptr %5, ptr %7, align 8
  %8 = getelementptr inbounds i8, ptr %0, i64 56
  store ptr %1, ptr %8, align 8
  invoke void @_ZN21Ui_FilterScriptDialog7setupUiEP7QDialog(ptr noundef nonnull align 8 dereferenceable(120) %5, ptr noundef nonnull %0)
          to label %9 unwind label %11

9:                                                ; preds = %6
  invoke void @_ZN18FilterScriptDialog9updateGuiEv(ptr noundef nonnull align 8 dereferenceable(64) %0)
          to label %10 unwind label %11

10:                                               ; preds = %9
  ret void

11:                                               ; preds = %9, %6, %3
  %12 = landingpad { ptr, i32 }
          cleanup
  tail call void @_ZN7QDialogD2Ev(ptr noundef nonnull align 8 dereferenceable(48) %0) #18
  resume { ptr, i32 } %12
}